target datalayout = "e-m:e-p270:32:32-p271:32:32-p272:64:64-i64:64-i128:128-f80:128-n8:16:32:64-S128"
target triple = "x86_64-pc-linux-gnu"

%struct.nstime_t = type { i64, i32 }
%struct._packet_info = type { ptr, ptr, i32, i32, %struct.nstime_t, %struct.nstime_t, %struct.nstime_t, i8, ptr, ptr, ptr, ptr, %struct._address, %struct._address, %struct._address, %struct._address, %struct._address, %struct._address, i32, ptr, i8, [3 x i8], %struct.anon, i32, i32, i32, i32, ptr, i8, ptr, ptr, i16, i16, i32, i32, i16, i32, i32, ptr, ptr, ptr, i8, i8, i16, i16, i16, i32, i16, i16, ptr, ptr, ptr, ptr, ptr, i32, i32 }
%struct._address = type { i32, i32, ptr, ptr }
%struct.anon = type { i8, [3 x i8] }

@hf_cql_short_bytes_length = internal global i32 0, align 4
@hf_cql_event_schema_change_type = internal global i32 0, align 4
@hf_cql_event_schema_change_type_target = internal global i32 0, align 4
@hf_cql_event_schema_change_object = internal global i32 0, align 4
@hf_cql_event_schema_change_keyspace = internal global i32 0, align 4
@.str.351 = private unnamed_addr constant [6 x i8] c"TABLE\00", align 1
@.str.352 = private unnamed_addr constant [5 x i8] c"TYPE\00", align 1

; Function Attrs: null_pointer_is_valid sspstrong uwtable
define internal i32 @parse_result_schema_change(ptr noundef %0, ptr noundef %1, ptr noundef %2, i32 noundef %3) #0 {
  %5 = alloca ptr, align 8
  %6 = alloca ptr, align 8
  %7 = alloca ptr, align 8
  %8 = alloca i32, align 4
  %9 = alloca i32, align 4
  %10 = alloca ptr, align 8
  store ptr %0, ptr %5, align 8
  store ptr %1, ptr %6, align 8
  store ptr %2, ptr %7, align 8
  store i32 %3, ptr %8, align 4
  call void @llvm.lifetime.start.p0(i64 4, ptr %9) #8
  store i32 0, ptr %9, align 4
  call void @llvm.lifetime.start.p0(i64 8, ptr %10) #8
  store ptr null, ptr %10, align 8
  %11 = load ptr, ptr %5, align 8
  %12 = load i32, ptr @hf_cql_short_bytes_length, align 4
  %13 = load ptr, ptr %7, align 8
  %14 = load i32, ptr %8, align 4
  %15 = call ptr @proto_tree_add_item_ret_uint(ptr noundef %11, i32 noundef %12, ptr noundef %13, i32 noundef %14, i32 noundef 2, i32 noundef 0, ptr noundef %9)
  %16 = load i32, ptr %8, align 4
  %17 = add i32 %16, 2
  store i32 %17, ptr %8, align 4
  %18 = load ptr, ptr %5, align 8
  %19 = load i32, ptr @hf_cql_event_schema_change_type, align 4
  %20 = load ptr, ptr %7, align 8
  %21 = load i32, ptr %8, align 4
  %22 = load i32, ptr %9, align 4
  %23 = call ptr @proto_tree_add_item(ptr noundef %18, i32 noundef %19, ptr noundef %20, i32 noundef %21, i32 noundef %22, i32 noundef 2)
  %24 = load i32, ptr %9, align 4
  %25 = load i32, ptr %8, align 4
  %26 = add i32 %25, %24
  store i32 %26, ptr %8, align 4
  %27 = load ptr, ptr %5, align 8
  %28 = load i32, ptr @hf_cql_short_bytes_length, align 4
  %29 = load ptr, ptr %7, align 8
  %30 = load i32, ptr %8, align 4
  %31 = call ptr @proto_tree_add_item_ret_uint(ptr noundef %27, i32 noundef %28, ptr noundef %29, i32 noundef %30, i32 noundef 2, i32 noundef 0, ptr noundef %9)
  %32 = load i32, ptr %8, align 4
  %33 = add i32 %32, 2
  store i32 %33, ptr %8, align 4
  %34 = load ptr, ptr %5, align 8
  %35 = load i32, ptr @hf_cql_event_schema_change_type_target, align 4
  %36 = load ptr, ptr %7, align 8
  %37 = load i32, ptr %8, align 4
  %38 = load i32, ptr %9, align 4
  %39 = load ptr, ptr %6, align 8
  %40 = getelementptr inbounds nuw %struct._packet_info, ptr %39, i32 0, i32 51
  %41 = load ptr, ptr %40, align 8
  %42 = call ptr @proto_tree_add_item_ret_string(ptr noundef %34, i32 noundef %35, ptr noundef %36, i32 noundef %37, i32 noundef %38, i32 noundef 2, ptr noundef %41, ptr noundef %10)
  %43 = load i32, ptr %9, align 4
  %44 = load i32, ptr %8, align 4
  %45 = add i32 %44, %43
  store i32 %45, ptr %8, align 4
  %46 = load ptr, ptr %5, align 8
  %47 = load i32, ptr @hf_cql_short_bytes_length, align 4
  %48 = load ptr, ptr %7, align 8
  %49 = load i32, ptr %8, align 4
  %50 = call ptr @proto_tree_add_item_ret_uint(ptr noundef %46, i32 noundef %47, ptr noundef %48, i32 noundef %49, i32 noundef 2, i32 noundef 0, ptr noundef %9)
  %51 = load i32, ptr %8, align 4
  %52 = add i32 %51, 2
  store i32 %52, ptr %8, align 4
  %53 = load ptr, ptr %5, align 8
  %54 = load i32, ptr @hf_cql_event_schema_change_keyspace, align 4
  %55 = load ptr, ptr %7, align 8
  %56 = load i32, ptr %8, align 4
  %57 = load i32, ptr %9, align 4
  %58 = call ptr @proto_tree_add_item(ptr noundef %53, i32 noundef %54, ptr noundef %55, i32 noundef %56, i32 noundef %57, i32 noundef 2)
  %59 = load i32, ptr %9, align 4
  %60 = load i32, ptr %8, align 4
  %61 = add i32 %60, %59
  store i32 %61, ptr %8, align 4
  %62 = load ptr, ptr %10, align 8
  %63 = call i32 @strcmp(ptr noundef %62, ptr noundef @.str.351) #10
  %64 = icmp eq i32 %63, 0
  br i1 %64, label %69, label %65

65:                                               ; preds = %4
  %66 = load ptr, ptr %10, align 8
  %67 = call i32 @strcmp(ptr noundef %66, ptr noundef @.str.352) #10
  %68 = icmp eq i32 %67, 0
  br i1 %68, label %69, label %83

69:                                               ; preds = %65, %4
  %70 = load ptr, ptr %5, align 8
  %71 = load i32, ptr @hf_cql_short_bytes_length, align 4
  %72 = load ptr, ptr %7, align 8
  %73 = load i32, ptr %8, align 4
  %74 = call ptr @proto_tree_add_item_ret_uint(ptr noundef %70, i32 noundef %71, ptr noundef %72, i32 noundef %73, i32 noundef 2, i32 noundef 0, ptr noundef %9)
  %75 = load i32, ptr %8, align 4
  %76 = add i32 %75, 2
  store i32 %76, ptr %8, align 4
  %77 = load ptr, ptr %5, align 8
  %78 = load i32, ptr @hf_cql_event_schema_change_object, align 4
  %79 = load ptr, ptr %7, align 8
  %80 = load i32, ptr %8, align 4
  %81 = load i32, ptr %9, align 4
  %82 = call ptr @proto_tree_add_item(ptr noundef %77, i32 noundef %78, ptr noundef %79, i32 noundef %80, i32 noundef %81, i32 noundef 2)
  br label %84

83:                                               ; preds = %65
  br label %84

84:                                               ; preds = %83, %69
  %85 = load i32, ptr %8, align 4
  call void @llvm.lifetime.end.p0(i64 8, ptr %10) #8
  call void @llvm.lifetime.end.p0(i64 4, ptr %9) #8
  ret i32 %85
}