; Function Attrs: null_pointer_is_valid sspstrong uwtable
define internal fastcc void @parse_result_schema_change(ptr noundef %0, ptr noundef readonly captures(none) %1, ptr noundef %2, i32 noundef %3) unnamed_addr #0 {
  %5 = alloca i32, align 4
  %6 = alloca ptr, align 8
  call void @llvm.lifetime.start.p0(i64 4, ptr nonnull %5) #8
  store i32 0, ptr %5, align 4
  call void @llvm.lifetime.start.p0(i64 8, ptr nonnull %6) #8
  store ptr null, ptr %6, align 8
  %7 = load i32, ptr @hf_cql_short_bytes_length, align 4
  %8 = call ptr @proto_tree_add_item_ret_uint(ptr noundef %0, i32 noundef %7, ptr noundef %2, i32 noundef %3, i32 noundef 2, i32 noundef 0, ptr noundef nonnull %5)
  %9 = add i32 %3, 2
  %10 = load i32, ptr @hf_cql_event_schema_change_type, align 4
  %11 = load i32, ptr %5, align 4
  %12 = call ptr @proto_tree_add_item(ptr noundef %0, i32 noundef %10, ptr noundef %2, i32 noundef %9, i32 noundef %11, i32 noundef 2)
  %13 = load i32, ptr %5, align 4
  %14 = add i32 %13, %9
  %15 = load i32, ptr @hf_cql_short_bytes_length, align 4
  %16 = call ptr @proto_tree_add_item_ret_uint(ptr noundef %0, i32 noundef %15, ptr noundef %2, i32 noundef %14, i32 noundef 2, i32 noundef 0, ptr noundef nonnull %5)
  %17 = add i32 %14, 2
  %18 = load i32, ptr @hf_cql_event_schema_change_type_target, align 4
  %19 = load i32, ptr %5, align 4
  %20 = getelementptr inbounds nuw i8, ptr %1, i64 408
  %21 = load ptr, ptr %20, align 8
  %22 = call ptr @proto_tree_add_item_ret_string(ptr noundef %0, i32 noundef %18, ptr noundef %2, i32 noundef %17, i32 noundef %19, i32 noundef 2, ptr noundef %21, ptr noundef nonnull %6)
  %23 = load i32, ptr %5, align 4
  %24 = add i32 %23, %17
  %25 = load i32, ptr @hf_cql_short_bytes_length, align 4
  %26 = call ptr @proto_tree_add_item_ret_uint(ptr noundef %0, i32 noundef %25, ptr noundef %2, i32 noundef %24, i32 noundef 2, i32 noundef 0, ptr noundef nonnull %5)
  %27 = add i32 %24, 2
  %28 = load i32, ptr @hf_cql_event_schema_change_keyspace, align 4
  %29 = load i32, ptr %5, align 4
  %30 = call ptr @proto_tree_add_item(ptr noundef %0, i32 noundef %28, ptr noundef %2, i32 noundef %27, i32 noundef %29, i32 noundef 2)
  %31 = load i32, ptr %5, align 4
  %32 = add i32 %31, %27
  %33 = load ptr, ptr %6, align 8
  %34 = call i32 @strcmp(ptr noundef %33, ptr noundef nonnull dereferenceable(6) @.str.351) #10
  %35 = icmp eq i32 %34, 0
  br i1 %35, label %39, label %36

36:                                               ; preds = %4
  %37 = call i32 @strcmp(ptr noundef %33, ptr noundef nonnull dereferenceable(5) @.str.352) #10
  %38 = icmp eq i32 %37, 0
  br i1 %38, label %39, label %46

39:                                               ; preds = %36, %4
  %40 = load i32, ptr @hf_cql_short_bytes_length, align 4
  %41 = call ptr @proto_tree_add_item_ret_uint(ptr noundef %0, i32 noundef %40, ptr noundef %2, i32 noundef %32, i32 noundef 2, i32 noundef 0, ptr noundef nonnull %5)
  %42 = add i32 %32, 2
  %43 = load i32, ptr @hf_cql_event_schema_change_object, align 4
  %44 = load i32, ptr %5, align 4
  %45 = call ptr @proto_tree_add_item(ptr noundef %0, i32 noundef %43, ptr noundef %2, i32 noundef %42, i32 noundef %44, i32 noundef 2)
  br label %46

46:                                               ; preds = %36, %39
  call void @llvm.lifetime.end.p0(i64 8, ptr nonnull %6) #8
  call void @llvm.lifetime.end.p0(i64 4, ptr nonnull %5) #8
  ret void
}